; Function Attrs: nounwind uwtable
define internal fastcc zeroext i1 @_equalCreateFdwStmt(ptr noundef nonnull readonly captures(none) %0, ptr noundef nonnull readonly captures(none) %1) unnamed_addr #0 {
  %3 = getelementptr inbounds nuw i8, ptr %0, i64 8
  %4 = load ptr, ptr %3, align 8
  %.not = icmp eq ptr %4, null
  %.phi.trans.insert = getelementptr inbounds nuw i8, ptr %1, i64 8
  %.pre = load ptr, ptr %.phi.trans.insert, align 8
  br i1 %.not, label %9, label %5

5:                                                ; preds = %2
  %.not13 = icmp eq ptr %.pre, null
  br i1 %.not13, label %.thread, label %6

6:                                                ; preds = %5
  %7 = tail call i32 @strcmp(ptr noundef nonnull dereferenceable(1) %4, ptr noundef nonnull dereferenceable(1) %.pre) #11
  %8 = icmp eq i32 %7, 0
  br i1 %8, label %11, label %.thread

9:                                                ; preds = %2
  %10 = icmp eq ptr %4, %.pre
  br i1 %10, label %11, label %.thread

11:                                               ; preds = %9, %6
  %12 = getelementptr inbounds nuw i8, ptr %0, i64 16
  %13 = load ptr, ptr %12, align 8
  %14 = getelementptr inbounds nuw i8, ptr %1, i64 16
  %15 = load ptr, ptr %14, align 8
  %16 = tail call zeroext i1 @equal(ptr noundef %13, ptr noundef %15)
  br i1 %16, label %17, label %.thread

17:                                               ; preds = %11
  %18 = getelementptr inbounds nuw i8, ptr %0, i64 24
  %19 = load ptr, ptr %18, align 8
  %20 = getelementptr inbounds nuw i8, ptr %1, i64 24
  %21 = load ptr, ptr %20, align 8
  %22 = tail call zeroext i1 @equal(ptr noundef %19, ptr noundef %21)
  br label %.thread

.thread:                                          ; preds = %5, %17, %11, %6, %9
  %.0 = phi i1 [ false, %9 ], [ false, %6 ], [ false, %11 ], [ %22, %17 ], [ false, %5 ]
  ret i1 %.0
}